; Function Attrs: mustprogress uwtable
define hidden void @_ZN4cvc58internal5proof19LfscPrintChannelOut17printOpenLfscRuleENS1_8LfscRuleE(ptr nocapture noundef nonnull readonly align 8 dereferenceable(16) %this, i32 noundef %lr) unnamed_addr #4 align 2 {
entry:
  %d_out = getelementptr inbounds i8, ptr %this, i64 8
  %0 = load ptr, ptr %d_out, align 8
  %call = tail call noundef nonnull align 8 dereferenceable(8) ptr @_ZNSolsEPFRSoS_E(ptr noundef nonnull align 8 dereferenceable(8) %0, ptr noundef nonnull @_ZSt4endlIcSt11char_traitsIcEERSt13basic_ostreamIT_T0_ES6_)
  %call2 = tail call noundef nonnull align 8 dereferenceable(8) ptr @_ZStlsISt11char_traitsIcEERSt13basic_ostreamIcT_ES5_PKc(ptr noundef nonnull align 8 dereferenceable(8) %call, ptr noundef nonnull @.str.4)
  %call3 = tail call noundef nonnull align 8 dereferenceable(8) ptr @_ZN4cvc58internal5prooflsERSoNS1_8LfscRuleE(ptr noundef nonnull align 8 dereferenceable(8) %call2, i32 noundef %lr)
  ret void
}